target datalayout = "e-m:e-p270:32:32-p271:32:32-p272:64:64-i64:64-i128:128-f80:128-n8:16:32:64-S128"
target triple = "x86_64-pc-linux-gnu"

%struct.uv_semaphore_s = type { %union.pthread_mutex_t, %union.pthread_cond_t, i32 }
%union.pthread_mutex_t = type { %struct.__pthread_mutex_s }
%struct.__pthread_mutex_s = type { i32, i32, i32, i32, i32, i16, i16, %struct.__pthread_internal_list }
%struct.__pthread_internal_list = type { ptr, ptr }
%union.pthread_cond_t = type { %struct.__pthread_cond_s }
%struct.__pthread_cond_s = type { %union.__atomic_wide_counter, %union.__atomic_wide_counter, [2 x i32], [2 x i32], i32, i32, [2 x i32] }
%union.__atomic_wide_counter = type { i64 }

@platform_needs_custom_semaphore = internal global i32 0, align 4

; Function Attrs: nounwind uwtable
define dso_local void @uv_mutex_unlock(ptr noundef %0) #0 {
  %2 = alloca ptr, align 8
  store ptr %0, ptr %2, align 8, !tbaa !4
  %3 = load ptr, ptr %2, align 8, !tbaa !4
  %4 = call i32 @pthread_mutex_unlock(ptr noundef %3) #8
  %5 = icmp ne i32 %4, 0
  br i1 %5, label %6, label %7

6:                                                ; preds = %1
  call void @abort() #9
  unreachable

7:                                                ; preds = %1
  ret void
}

; Function Attrs: nounwind uwtable
define dso_local void @uv_cond_wait(ptr noundef %0, ptr noundef %1) #0 {
  %3 = alloca ptr, align 8
  %4 = alloca ptr, align 8
  store ptr %0, ptr %3, align 8, !tbaa !4
  store ptr %1, ptr %4, align 8, !tbaa !4
  %5 = load ptr, ptr %3, align 8, !tbaa !4
  %6 = load ptr, ptr %4, align 8, !tbaa !4
  %7 = call i32 @pthread_cond_wait(ptr noundef %5, ptr noundef %6)
  %8 = icmp ne i32 %7, 0
  br i1 %8, label %9, label %10

9:                                                ; preds = %2
  call void @abort() #9
  unreachable

10:                                               ; preds = %2
  ret void
}

; Function Attrs: nounwind uwtable
define dso_local void @uv_mutex_lock(ptr noundef %0) #0 {
  %2 = alloca ptr, align 8
  store ptr %0, ptr %2, align 8, !tbaa !4
  %3 = load ptr, ptr %2, align 8, !tbaa !4
  %4 = call i32 @pthread_mutex_lock(ptr noundef %3) #8
  %5 = icmp ne i32 %4, 0
  br i1 %5, label %6, label %7

6:                                                ; preds = %1
  call void @abort() #9
  unreachable

7:                                                ; preds = %1
  ret void
}

; Function Attrs: nounwind uwtable
define internal void @uv__sem_wait(ptr noundef %0) #0 {
  %2 = alloca ptr, align 8
  %3 = alloca i32, align 4
  store ptr %0, ptr %2, align 8, !tbaa !4
  call void @llvm.lifetime.start.p0(i64 4, ptr %3) #8
  br label %4

4:                                                ; preds = %14, %1
  %5 = load ptr, ptr %2, align 8, !tbaa !4
  %6 = call i32 @sem_wait(ptr noundef %5)
  store i32 %6, ptr %3, align 4, !tbaa !8
  br label %7

7:                                                ; preds = %4
  %8 = load i32, ptr %3, align 4, !tbaa !8
  %9 = icmp eq i32 %8, -1
  br i1 %9, label %10, label %14

10:                                               ; preds = %7
  %11 = call ptr @__errno_location() #10
  %12 = load i32, ptr %11, align 4, !tbaa !8
  %13 = icmp eq i32 %12, 4
  br label %14

14:                                               ; preds = %10, %7
  %15 = phi i1 [ false, %7 ], [ %13, %10 ]
  br i1 %15, label %4, label %16, !llvm.loop !34

16:                                               ; preds = %14
  %17 = load i32, ptr %3, align 4, !tbaa !8
  %18 = icmp ne i32 %17, 0
  br i1 %18, label %19, label %20

19:                                               ; preds = %16
  call void @abort() #9
  unreachable

20:                                               ; preds = %16
  call void @llvm.lifetime.end.p0(i64 4, ptr %3) #8
  ret void
}

; Function Attrs: nounwind uwtable
define internal void @uv__custom_sem_wait(ptr noundef %0) #0 {
  %2 = alloca ptr, align 8
  %3 = alloca ptr, align 8
  store ptr %0, ptr %2, align 8, !tbaa !4
  call void @llvm.lifetime.start.p0(i64 8, ptr %3) #8
  %4 = load ptr, ptr %2, align 8, !tbaa !4
  %5 = load ptr, ptr %4, align 8, !tbaa !28
  store ptr %5, ptr %3, align 8, !tbaa !28
  %6 = load ptr, ptr %3, align 8, !tbaa !28
  %7 = getelementptr inbounds nuw %struct.uv_semaphore_s, ptr %6, i32 0, i32 0
  call void @uv_mutex_lock(ptr noundef %7)
  br label %8

8:                                                ; preds = %13, %1
  %9 = load ptr, ptr %3, align 8, !tbaa !28
  %10 = getelementptr inbounds nuw %struct.uv_semaphore_s, ptr %9, i32 0, i32 2
  %11 = load i32, ptr %10, align 8, !tbaa !30
  %12 = icmp eq i32 %11, 0
  br i1 %12, label %13, label %18

13:                                               ; preds = %8
  %14 = load ptr, ptr %3, align 8, !tbaa !28
  %15 = getelementptr inbounds nuw %struct.uv_semaphore_s, ptr %14, i32 0, i32 1
  %16 = load ptr, ptr %3, align 8, !tbaa !28
  %17 = getelementptr inbounds nuw %struct.uv_semaphore_s, ptr %16, i32 0, i32 0
  call void @uv_cond_wait(ptr noundef %15, ptr noundef %17)
  br label %8, !llvm.loop !32

18:                                               ; preds = %8
  %19 = load ptr, ptr %3, align 8, !tbaa !28
  %20 = getelementptr inbounds nuw %struct.uv_semaphore_s, ptr %19, i32 0, i32 2
  %21 = load i32, ptr %20, align 8, !tbaa !30
  %22 = add i32 %21, -1
  store i32 %22, ptr %20, align 8, !tbaa !30
  %23 = load ptr, ptr %3, align 8, !tbaa !28
  %24 = getelementptr inbounds nuw %struct.uv_semaphore_s, ptr %23, i32 0, i32 0
  call void @uv_mutex_unlock(ptr noundef %24)
  call void @llvm.lifetime.end.p0(i64 8, ptr %3) #8
  ret void
}

; Function Attrs: nounwind uwtable
define dso_local void @uv_sem_wait(ptr noundef %0) #0 {
  %2 = alloca ptr, align 8
  store ptr %0, ptr %2, align 8, !tbaa !4
  %3 = load i32, ptr @platform_needs_custom_semaphore, align 4, !tbaa !8
  %4 = icmp ne i32 %3, 0
  br i1 %4, label %5, label %7

5:                                                ; preds = %1
  %6 = load ptr, ptr %2, align 8, !tbaa !4
  call void @uv__custom_sem_wait(ptr noundef %6)
  br label %9

7:                                                ; preds = %1
  %8 = load ptr, ptr %2, align 8, !tbaa !4
  call void @uv__sem_wait(ptr noundef %8)
  br label %9

9:                                                ; preds = %7, %5
  ret void
}