; Function Attrs: nounwind uwtable
define dso_local void @uv_sem_wait(ptr noundef %0) local_unnamed_addr #0 {
  %2 = load i32, ptr @platform_needs_custom_semaphore, align 4, !tbaa !14
  %.not = icmp eq i32 %2, 0
  br i1 %.not, label %.preheader, label %3

3:                                                ; preds = %1
  %.val = load ptr, ptr %0, align 8, !tbaa !17
  %4 = tail call i32 @pthread_mutex_lock(ptr noundef %.val) #10
  %.not.i.i = icmp eq i32 %4, 0
  br i1 %.not.i.i, label %uv_mutex_lock.exit.preheader.i, label %7

uv_mutex_lock.exit.preheader.i:                   ; preds = %3
  %5 = getelementptr inbounds nuw i8, ptr %.val, i64 88
  %6 = getelementptr inbounds nuw i8, ptr %.val, i64 40
  br label %uv_mutex_lock.exit.i

7:                                                ; preds = %3
  tail call void @abort() #11
  unreachable

uv_mutex_lock.exit.i:                             ; preds = %10, %uv_mutex_lock.exit.preheader.i
  %8 = load i32, ptr %5, align 8, !tbaa !15
  %9 = icmp eq i32 %8, 0
  br i1 %9, label %10, label %13

10:                                               ; preds = %uv_mutex_lock.exit.i
  %11 = tail call i32 @pthread_cond_wait(ptr noundef nonnull %6, ptr noundef nonnull %.val) #10
  %.not.i7.i = icmp eq i32 %11, 0
  br i1 %.not.i7.i, label %uv_mutex_lock.exit.i, label %12, !llvm.loop !21

12:                                               ; preds = %10
  tail call void @abort() #11
  unreachable

13:                                               ; preds = %uv_mutex_lock.exit.i
  %14 = add i32 %8, -1
  store i32 %14, ptr %5, align 8, !tbaa !15
  %15 = tail call i32 @pthread_mutex_unlock(ptr noundef nonnull %.val) #10
  %.not.i8.i = icmp eq i32 %15, 0
  br i1 %.not.i8.i, label %uv__custom_sem_wait.exit, label %16

16:                                               ; preds = %13
  tail call void @abort() #11
  unreachable

.preheader:                                       ; preds = %1, %18
  %17 = tail call i32 @sem_wait(ptr noundef %0) #10
  switch i32 %17, label %.critedge.i [
    i32 -1, label %18
    i32 0, label %uv__custom_sem_wait.exit
  ]

18:                                               ; preds = %.preheader
  %19 = tail call ptr @__errno_location() #12
  %20 = load i32, ptr %19, align 4, !tbaa !14
  %21 = icmp eq i32 %20, 4
  br i1 %21, label %.preheader, label %.critedge.i, !llvm.loop !23

.critedge.i:                                      ; preds = %18, %.preheader
  tail call void @abort() #11
  unreachable

uv__custom_sem_wait.exit:                         ; preds = %.preheader, %13
  ret void
}